target datalayout = "e-m:e-p270:32:32-p271:32:32-p272:64:64-i64:64-i128:128-f80:128-n8:16:32:64-S128"
target triple = "x86_64-pc-linux-gnu"

%struct._object = type { %union.anon, ptr }
%union.anon = type { i64 }
%struct.PyVarObject = type { %struct._object, i64 }
%struct.arraydescr = type { i8, i32, ptr, ptr, ptr, ptr, i32, i32 }
%struct.anon = type { i32, i32 }
%struct.arrayobject = type { %struct.PyVarObject, ptr, i64, ptr, ptr, i64 }
%struct.Py_buffer = type { ptr, ptr, i64, i64, i32, i32, ptr, ptr, ptr, ptr, ptr }

@.str.16 = private unnamed_addr constant [2 x i8] c"w\00", align 1
@PyExc_BufferError = external global ptr, align 8
@.str.133 = private unnamed_addr constant [53 x i8] c"array_buffer_getbuf: view==NULL argument is obsolete\00", align 1
@emptybuf = internal global ptr @.str.103, align 8

; Function Attrs: alwaysinline nounwind uwtable
define internal void @Py_INCREF(ptr noundef %0) #4 {
  %2 = alloca ptr, align 8
  %3 = alloca i32, align 4
  %4 = alloca i32, align 4
  store ptr %0, ptr %2, align 8, !tbaa !3
  call void @llvm.lifetime.start.p0(i64 4, ptr %3) #8
  %5 = load ptr, ptr %2, align 8, !tbaa !3
  %6 = getelementptr inbounds nuw %struct._object, ptr %5, i32 0, i32 0
  %7 = getelementptr inbounds nuw %struct.anon, ptr %6, i32 0, i32 0
  %8 = load i32, ptr %7, align 8, !tbaa !36
  store i32 %8, ptr %3, align 4, !tbaa !12
  %9 = load i32, ptr %3, align 4, !tbaa !12
  %10 = icmp slt i32 %9, 0
  br i1 %10, label %11, label %12

11:                                               ; preds = %1
  store i32 1, ptr %4, align 4
  br label %18

12:                                               ; preds = %1
  %13 = load i32, ptr %3, align 4, !tbaa !12
  %14 = add i32 %13, 1
  %15 = load ptr, ptr %2, align 8, !tbaa !3
  %16 = getelementptr inbounds nuw %struct._object, ptr %15, i32 0, i32 0
  %17 = getelementptr inbounds nuw %struct.anon, ptr %16, i32 0, i32 0
  store i32 %14, ptr %17, align 8, !tbaa !36
  store i32 0, ptr %4, align 4
  br label %18

18:                                               ; preds = %12, %11
  call void @llvm.lifetime.end.p0(i64 4, ptr %3) #8
  %19 = load i32, ptr %4, align 4
  switch i32 %19, label %21 [
    i32 0, label %20
    i32 1, label %20
  ]

20:                                               ; preds = %18, %18
  ret void

21:                                               ; preds = %18
  unreachable
}

; Function Attrs: inlinehint nounwind uwtable
define internal i64 @Py_SIZE(ptr noundef %0) #3 {
  %2 = alloca ptr, align 8
  store ptr %0, ptr %2, align 8, !tbaa !3
  %3 = load ptr, ptr %2, align 8, !tbaa !3
  %4 = getelementptr inbounds nuw %struct.PyVarObject, ptr %3, i32 0, i32 1
  %5 = load i64, ptr %4, align 8, !tbaa !62
  ret i64 %5
}

; Function Attrs: inlinehint nounwind uwtable
define internal ptr @_Py_NewRef(ptr noundef %0) #3 {
  %2 = alloca ptr, align 8
  store ptr %0, ptr %2, align 8, !tbaa !3
  %3 = load ptr, ptr %2, align 8, !tbaa !3
  call void @Py_INCREF(ptr noundef %3)
  %4 = load ptr, ptr %2, align 8, !tbaa !3
  ret ptr %4
}

; Function Attrs: nounwind uwtable
define internal i32 @array_buffer_getbuf(ptr noundef %0, ptr noundef %1, i32 noundef %2) #0 {
  %4 = alloca i32, align 4
  %5 = alloca ptr, align 8
  %6 = alloca ptr, align 8
  %7 = alloca i32, align 4
  store ptr %0, ptr %5, align 8, !tbaa !68
  store ptr %1, ptr %6, align 8, !tbaa !8
  store i32 %2, ptr %7, align 4, !tbaa !12
  %8 = load ptr, ptr %6, align 8, !tbaa !8
  %9 = icmp eq ptr %8, null
  br i1 %9, label %10, label %12

10:                                               ; preds = %3
  %11 = load ptr, ptr @PyExc_BufferError, align 8, !tbaa !3
  call void @PyErr_SetString(ptr noundef %11, ptr noundef @.str.133)
  store i32 -1, ptr %4, align 4
  br label %109

12:                                               ; preds = %3
  %13 = load ptr, ptr %5, align 8, !tbaa !68
  %14 = getelementptr inbounds nuw %struct.arrayobject, ptr %13, i32 0, i32 1
  %15 = load ptr, ptr %14, align 8, !tbaa !70
  %16 = load ptr, ptr %6, align 8, !tbaa !8
  %17 = getelementptr inbounds nuw %struct.Py_buffer, ptr %16, i32 0, i32 0
  store ptr %15, ptr %17, align 8, !tbaa !112
  %18 = load ptr, ptr %5, align 8, !tbaa !68
  %19 = call ptr @_Py_NewRef(ptr noundef %18)
  %20 = load ptr, ptr %6, align 8, !tbaa !8
  %21 = getelementptr inbounds nuw %struct.Py_buffer, ptr %20, i32 0, i32 1
  store ptr %19, ptr %21, align 8, !tbaa !106
  %22 = load ptr, ptr %6, align 8, !tbaa !8
  %23 = getelementptr inbounds nuw %struct.Py_buffer, ptr %22, i32 0, i32 0
  %24 = load ptr, ptr %23, align 8, !tbaa !112
  %25 = icmp eq ptr %24, null
  br i1 %25, label %26, label %30

26:                                               ; preds = %12
  %27 = load ptr, ptr @emptybuf, align 8, !tbaa !8
  %28 = load ptr, ptr %6, align 8, !tbaa !8
  %29 = getelementptr inbounds nuw %struct.Py_buffer, ptr %28, i32 0, i32 0
  store ptr %27, ptr %29, align 8, !tbaa !112
  br label %30

30:                                               ; preds = %26, %12
  %31 = load ptr, ptr %5, align 8, !tbaa !68
  %32 = call i64 @Py_SIZE(ptr noundef %31)
  %33 = load ptr, ptr %5, align 8, !tbaa !68
  %34 = getelementptr inbounds nuw %struct.arrayobject, ptr %33, i32 0, i32 3
  %35 = load ptr, ptr %34, align 8, !tbaa !99
  %36 = getelementptr inbounds nuw %struct.arraydescr, ptr %35, i32 0, i32 1
  %37 = load i32, ptr %36, align 4, !tbaa !52
  %38 = sext i32 %37 to i64
  %39 = mul i64 %32, %38
  %40 = load ptr, ptr %6, align 8, !tbaa !8
  %41 = getelementptr inbounds nuw %struct.Py_buffer, ptr %40, i32 0, i32 2
  store i64 %39, ptr %41, align 8, !tbaa !111
  %42 = load ptr, ptr %6, align 8, !tbaa !8
  %43 = getelementptr inbounds nuw %struct.Py_buffer, ptr %42, i32 0, i32 4
  store i32 0, ptr %43, align 8, !tbaa !130
  %44 = load ptr, ptr %6, align 8, !tbaa !8
  %45 = getelementptr inbounds nuw %struct.Py_buffer, ptr %44, i32 0, i32 5
  store i32 1, ptr %45, align 4, !tbaa !131
  %46 = load ptr, ptr %5, align 8, !tbaa !68
  %47 = getelementptr inbounds nuw %struct.arrayobject, ptr %46, i32 0, i32 3
  %48 = load ptr, ptr %47, align 8, !tbaa !99
  %49 = getelementptr inbounds nuw %struct.arraydescr, ptr %48, i32 0, i32 1
  %50 = load i32, ptr %49, align 4, !tbaa !52
  %51 = sext i32 %50 to i64
  %52 = load ptr, ptr %6, align 8, !tbaa !8
  %53 = getelementptr inbounds nuw %struct.Py_buffer, ptr %52, i32 0, i32 3
  store i64 %51, ptr %53, align 8, !tbaa !110
  %54 = load ptr, ptr %6, align 8, !tbaa !8
  %55 = getelementptr inbounds nuw %struct.Py_buffer, ptr %54, i32 0, i32 9
  store ptr null, ptr %55, align 8, !tbaa !132
  %56 = load ptr, ptr %6, align 8, !tbaa !8
  %57 = getelementptr inbounds nuw %struct.Py_buffer, ptr %56, i32 0, i32 7
  store ptr null, ptr %57, align 8, !tbaa !133
  %58 = load i32, ptr %7, align 4, !tbaa !12
  %59 = and i32 %58, 8
  %60 = icmp eq i32 %59, 8
  br i1 %60, label %61, label %66

61:                                               ; preds = %30
  %62 = load ptr, ptr %5, align 8, !tbaa !68
  %63 = getelementptr inbounds nuw %struct.PyVarObject, ptr %62, i32 0, i32 1
  %64 = load ptr, ptr %6, align 8, !tbaa !8
  %65 = getelementptr inbounds nuw %struct.Py_buffer, ptr %64, i32 0, i32 7
  store ptr %63, ptr %65, align 8, !tbaa !133
  br label %66

66:                                               ; preds = %61, %30
  %67 = load ptr, ptr %6, align 8, !tbaa !8
  %68 = getelementptr inbounds nuw %struct.Py_buffer, ptr %67, i32 0, i32 8
  store ptr null, ptr %68, align 8, !tbaa !134
  %69 = load i32, ptr %7, align 4, !tbaa !12
  %70 = and i32 %69, 24
  %71 = icmp eq i32 %70, 24
  br i1 %71, label %72, label %77

72:                                               ; preds = %66
  %73 = load ptr, ptr %6, align 8, !tbaa !8
  %74 = getelementptr inbounds nuw %struct.Py_buffer, ptr %73, i32 0, i32 3
  %75 = load ptr, ptr %6, align 8, !tbaa !8
  %76 = getelementptr inbounds nuw %struct.Py_buffer, ptr %75, i32 0, i32 8
  store ptr %74, ptr %76, align 8, !tbaa !134
  br label %77

77:                                               ; preds = %72, %66
  %78 = load ptr, ptr %6, align 8, !tbaa !8
  %79 = getelementptr inbounds nuw %struct.Py_buffer, ptr %78, i32 0, i32 6
  store ptr null, ptr %79, align 8, !tbaa !135
  %80 = load ptr, ptr %6, align 8, !tbaa !8
  %81 = getelementptr inbounds nuw %struct.Py_buffer, ptr %80, i32 0, i32 10
  store ptr null, ptr %81, align 8, !tbaa !136
  %82 = load i32, ptr %7, align 4, !tbaa !12
  %83 = and i32 %82, 4
  %84 = icmp eq i32 %83, 4
  br i1 %84, label %85, label %104

85:                                               ; preds = %77
  %86 = load ptr, ptr %5, align 8, !tbaa !68
  %87 = getelementptr inbounds nuw %struct.arrayobject, ptr %86, i32 0, i32 3
  %88 = load ptr, ptr %87, align 8, !tbaa !99
  %89 = getelementptr inbounds nuw %struct.arraydescr, ptr %88, i32 0, i32 5
  %90 = load ptr, ptr %89, align 8, !tbaa !137
  %91 = load ptr, ptr %6, align 8, !tbaa !8
  %92 = getelementptr inbounds nuw %struct.Py_buffer, ptr %91, i32 0, i32 6
  store ptr %90, ptr %92, align 8, !tbaa !135
  %93 = load ptr, ptr %5, align 8, !tbaa !68
  %94 = getelementptr inbounds nuw %struct.arrayobject, ptr %93, i32 0, i32 3
  %95 = load ptr, ptr %94, align 8, !tbaa !99
  %96 = getelementptr inbounds nuw %struct.arraydescr, ptr %95, i32 0, i32 0
  %97 = load i8, ptr %96, align 8, !tbaa !41
  %98 = sext i8 %97 to i32
  %99 = icmp eq i32 %98, 117
  br i1 %99, label %100, label %103

100:                                              ; preds = %85
  %101 = load ptr, ptr %6, align 8, !tbaa !8
  %102 = getelementptr inbounds nuw %struct.Py_buffer, ptr %101, i32 0, i32 6
  store ptr @.str.16, ptr %102, align 8, !tbaa !135
  br label %103

103:                                              ; preds = %100, %85
  br label %104

104:                                              ; preds = %103, %77
  %105 = load ptr, ptr %5, align 8, !tbaa !68
  %106 = getelementptr inbounds nuw %struct.arrayobject, ptr %105, i32 0, i32 5
  %107 = load i64, ptr %106, align 8, !tbaa !105
  %108 = add i64 %107, 1
  store i64 %108, ptr %106, align 8, !tbaa !105
  store i32 0, ptr %4, align 4
  br label %109

109:                                              ; preds = %104, %10
  %110 = load i32, ptr %4, align 4
  ret i32 %110
}