; Function Attrs: nounwind uwtable
define internal range(i32 -1, 1) i32 @array_buffer_getbuf(ptr noundef %0, ptr noundef %1, i32 noundef %2) #0 {
  %4 = icmp eq ptr %1, null
  br i1 %4, label %5, label %7

5:                                                ; preds = %3
  %6 = load ptr, ptr @PyExc_BufferError, align 8, !tbaa !18
  tail call void @PyErr_SetString(ptr noundef %6, ptr noundef nonnull @.str.133) #11
  br label %48

7:                                                ; preds = %3
  %8 = getelementptr inbounds nuw i8, ptr %0, i64 24
  %9 = load ptr, ptr %8, align 8, !tbaa !53
  store ptr %9, ptr %1, align 8, !tbaa !88
  %10 = load i32, ptr %0, align 8, !tbaa !17
  %11 = icmp slt i32 %10, 0
  br i1 %11, label %_Py_NewRef.exit, label %12

12:                                               ; preds = %7
  %13 = add nuw i32 %10, 1
  store i32 %13, ptr %0, align 8, !tbaa !17
  %.pr = load ptr, ptr %1, align 8, !tbaa !88
  br label %_Py_NewRef.exit

_Py_NewRef.exit:                                  ; preds = %7, %12
  %14 = phi ptr [ %9, %7 ], [ %.pr, %12 ]
  %15 = getelementptr inbounds nuw i8, ptr %1, i64 8
  store ptr %0, ptr %15, align 8, !tbaa !89
  %16 = icmp eq ptr %14, null
  br i1 %16, label %17, label %18

17:                                               ; preds = %_Py_NewRef.exit
  store ptr @.str.103, ptr %1, align 8, !tbaa !88
  br label %18

18:                                               ; preds = %17, %_Py_NewRef.exit
  %19 = getelementptr i8, ptr %0, i64 16
  %.val = load i64, ptr %19, align 8, !tbaa !40
  %20 = getelementptr inbounds nuw i8, ptr %0, i64 40
  %21 = load ptr, ptr %20, align 8, !tbaa !76
  %22 = getelementptr inbounds nuw i8, ptr %21, i64 4
  %23 = load i32, ptr %22, align 4, !tbaa !49
  %24 = sext i32 %23 to i64
  %25 = mul i64 %.val, %24
  %26 = getelementptr inbounds nuw i8, ptr %1, i64 16
  store i64 %25, ptr %26, align 8, !tbaa !87
  %27 = getelementptr inbounds nuw i8, ptr %1, i64 32
  store i32 0, ptr %27, align 8, !tbaa !110
  %28 = getelementptr inbounds nuw i8, ptr %1, i64 36
  store i32 1, ptr %28, align 4, !tbaa !111
  %29 = getelementptr inbounds nuw i8, ptr %1, i64 24
  store i64 %24, ptr %29, align 8, !tbaa !84
  %30 = getelementptr inbounds nuw i8, ptr %1, i64 64
  store ptr null, ptr %30, align 8, !tbaa !112
  %31 = getelementptr inbounds nuw i8, ptr %1, i64 48
  %32 = and i32 %2, 8
  %.not = icmp eq i32 %32, 0
  %spec.select = select i1 %.not, ptr null, ptr %19
  store ptr %spec.select, ptr %31, align 8, !tbaa !113
  %33 = getelementptr inbounds nuw i8, ptr %1, i64 56
  %34 = and i32 %2, 24
  %35 = icmp eq i32 %34, 24
  %storemerge32 = select i1 %35, ptr %29, ptr null
  store ptr %storemerge32, ptr %33, align 8, !tbaa !114
  %36 = getelementptr inbounds nuw i8, ptr %1, i64 40
  store ptr null, ptr %36, align 8, !tbaa !115
  %37 = getelementptr inbounds nuw i8, ptr %1, i64 72
  store ptr null, ptr %37, align 8, !tbaa !116
  %38 = and i32 %2, 4
  %.not33 = icmp eq i32 %38, 0
  br i1 %.not33, label %44, label %39

39:                                               ; preds = %18
  %40 = getelementptr inbounds nuw i8, ptr %21, i64 32
  %41 = load ptr, ptr %40, align 8, !tbaa !117
  %42 = load i8, ptr %21, align 8, !tbaa !36
  %43 = icmp eq i8 %42, 117
  %spec.store.select = select i1 %43, ptr @.str.16, ptr %41
  store ptr %spec.store.select, ptr %36, align 8
  br label %44

44:                                               ; preds = %39, %18
  %45 = getelementptr inbounds nuw i8, ptr %0, i64 56
  %46 = load i64, ptr %45, align 8, !tbaa !83
  %47 = add i64 %46, 1
  store i64 %47, ptr %45, align 8, !tbaa !83
  br label %48

48:                                               ; preds = %44, %5
  %.0 = phi i32 [ -1, %5 ], [ 0, %44 ]
  ret i32 %.0
}